target datalayout = "e-m:e-p270:32:32-p271:32:32-p272:64:64-i64:64-i128:128-f80:128-n8:16:32:64-S128"
target triple = "x86_64-pc-linux-gnu"

%"class.ade::Handle" = type { %"class.std::weak_ptr" }
%"class.std::weak_ptr" = type { %"class.std::__weak_ptr" }
%"class.std::__weak_ptr" = type { ptr, %"class.std::__weak_count" }
%"class.std::__weak_count" = type { ptr }
%"struct.cv::GMatDesc" = type { i32, i32, %"class.cv::Size_", i8, %"class.std::vector" }
%"class.cv::Size_" = type { i32, i32 }
%"class.std::vector" = type { %"struct.std::_Vector_base" }
%"struct.std::_Vector_base" = type { %"struct.std::_Vector_base<int, std::allocator<int>>::_Vector_impl" }
%"struct.std::_Vector_base<int, std::allocator<int>>::_Vector_impl" = type { %"struct.std::_Vector_base<int, std::allocator<int>>::_Vector_impl_data" }
%"struct.std::_Vector_base<int, std::allocator<int>>::_Vector_impl_data" = type { ptr, ptr, ptr }
%"class.std::__cxx11::basic_string" = type { %"struct.std::__cxx11::basic_string<char>::_Alloc_hider", i64, %union.anon }
%"struct.std::__cxx11::basic_string<char>::_Alloc_hider" = type { ptr }
%union.anon = type { i64, [8 x i8] }
%"struct.cv::gimpl::FluidAgent" = type { ptr, %"class.cv::GFluidKernel", %"class.ade::Handle", %"class.std::__cxx11::basic_string", %"class.std::vector", %"class.std::vector", %"class.std::vector.16", %"class.std::vector.21", %"class.std::vector.26", i32, i32 }
%"class.cv::GFluidKernel" = type { i32, i32, i8, %"class.std::function", %"class.std::function.3", %"class.std::function.5", %"class.std::function.7", %"class.std::function.10" }
%"class.std::function" = type { %"class.std::_Function_base", ptr }
%"class.std::_Function_base" = type { %"union.std::_Any_data", ptr }
%"union.std::_Any_data" = type { %"union.std::_Nocopy_types" }
%"union.std::_Nocopy_types" = type { { i64, i64 } }
%"class.std::function.3" = type { %"class.std::_Function_base", ptr }
%"class.std::function.5" = type { %"class.std::_Function_base", ptr }
%"class.std::function.7" = type { %"class.std::_Function_base", ptr }
%"class.std::function.10" = type { %"class.std::_Function_base", ptr }
%"class.std::vector.16" = type { %"struct.std::_Vector_base.17" }
%"struct.std::_Vector_base.17" = type { %"struct.std::_Vector_base<cv::GArg, std::allocator<cv::GArg>>::_Vector_impl" }
%"struct.std::_Vector_base<cv::GArg, std::allocator<cv::GArg>>::_Vector_impl" = type { %"struct.std::_Vector_base<cv::GArg, std::allocator<cv::GArg>>::_Vector_impl_data" }
%"struct.std::_Vector_base<cv::GArg, std::allocator<cv::GArg>>::_Vector_impl_data" = type { ptr, ptr, ptr }
%"class.std::vector.21" = type { %"struct.std::_Vector_base.22" }
%"struct.std::_Vector_base.22" = type { %"struct.std::_Vector_base<cv::gapi::fluid::View, std::allocator<cv::gapi::fluid::View>>::_Vector_impl" }
%"struct.std::_Vector_base<cv::gapi::fluid::View, std::allocator<cv::gapi::fluid::View>>::_Vector_impl" = type { %"struct.std::_Vector_base<cv::gapi::fluid::View, std::allocator<cv::gapi::fluid::View>>::_Vector_impl_data" }
%"struct.std::_Vector_base<cv::gapi::fluid::View, std::allocator<cv::gapi::fluid::View>>::_Vector_impl_data" = type { ptr, ptr, ptr }
%"class.std::vector.26" = type { %"struct.std::_Vector_base.27" }
%"struct.std::_Vector_base.27" = type { %"struct.std::_Vector_base<cv::gapi::fluid::Buffer *, std::allocator<cv::gapi::fluid::Buffer *>>::_Vector_impl" }
%"struct.std::_Vector_base<cv::gapi::fluid::Buffer *, std::allocator<cv::gapi::fluid::Buffer *>>::_Vector_impl" = type { %"struct.std::_Vector_base<cv::gapi::fluid::Buffer *, std::allocator<cv::gapi::fluid::Buffer *>>::_Vector_impl_data" }
%"struct.std::_Vector_base<cv::gapi::fluid::Buffer *, std::allocator<cv::gapi::fluid::Buffer *>>::_Vector_impl_data" = type { ptr, ptr, ptr }
%"struct.std::pair.137" = type { i32, i32 }
%"struct.cv::gimpl::FluidResizeAgent" = type { %"struct.cv::gimpl::FluidAgent", %"class.std::unique_ptr.139" }
%"class.std::unique_ptr.139" = type { %"struct.std::__uniq_ptr_data.140" }
%"struct.std::__uniq_ptr_data.140" = type { %"class.std::__uniq_ptr_impl.141" }
%"class.std::__uniq_ptr_impl.141" = type { %"class.std::tuple.142" }
%"class.std::tuple.142" = type { %"struct.std::_Tuple_impl.143" }
%"struct.std::_Tuple_impl.143" = type { %"struct.std::_Head_base.146" }
%"struct.std::_Head_base.146" = type { ptr }
%"class.cv::gapi::fluid::Buffer::Priv" = type <{ %"struct.cv::gapi::fluid::Buffer::Cache", i32, [4 x i8], %"struct.cv::GMatDesc", i8, [3 x i8], i32, %"class.std::vector.160", %"class.std::unique_ptr.165", i32, %"class.cv::Rect_", [4 x i8] }>
%"struct.cv::gapi::fluid::Buffer::Cache" = type { %"class.std::vector.155", %"struct.cv::GMatDesc" }
%"class.std::vector.155" = type { %"struct.std::_Vector_base.156" }
%"struct.std::_Vector_base.156" = type { %"struct.std::_Vector_base<unsigned char *, std::allocator<unsigned char *>>::_Vector_impl" }
%"struct.std::_Vector_base<unsigned char *, std::allocator<unsigned char *>>::_Vector_impl" = type { %"struct.std::_Vector_base<unsigned char *, std::allocator<unsigned char *>>::_Vector_impl_data" }
%"struct.std::_Vector_base<unsigned char *, std::allocator<unsigned char *>>::_Vector_impl_data" = type { ptr, ptr, ptr }
%"class.std::vector.160" = type { %"struct.std::_Vector_base.161" }
%"struct.std::_Vector_base.161" = type { %"struct.std::_Vector_base<const cv::gapi::fluid::View *, std::allocator<const cv::gapi::fluid::View *>>::_Vector_impl" }
%"struct.std::_Vector_base<const cv::gapi::fluid::View *, std::allocator<const cv::gapi::fluid::View *>>::_Vector_impl" = type { %"struct.std::_Vector_base<const cv::gapi::fluid::View *, std::allocator<const cv::gapi::fluid::View *>>::_Vector_impl_data" }
%"struct.std::_Vector_base<const cv::gapi::fluid::View *, std::allocator<const cv::gapi::fluid::View *>>::_Vector_impl_data" = type { ptr, ptr, ptr }
%"class.std::unique_ptr.165" = type { %"struct.std::__uniq_ptr_data.166" }
%"struct.std::__uniq_ptr_data.166" = type { %"class.std::__uniq_ptr_impl.167" }
%"class.std::__uniq_ptr_impl.167" = type { %"class.std::tuple.168" }
%"class.std::tuple.168" = type { %"struct.std::_Tuple_impl.169" }
%"struct.std::_Tuple_impl.169" = type { %"struct.std::_Head_base.172" }
%"struct.std::_Head_base.172" = type { ptr }
%"class.cv::Rect_" = type { i32, i32, i32, i32 }

; Function Attrs: mustprogress nounwind uwtable
define linkonce_odr hidden noundef nonnull align 8 dereferenceable(8) ptr @_ZNSt10_Head_baseILm0EPN2cv5gimpl11FluidMapperELb0EE7_M_headERKS4_(ptr noundef nonnull align 8 dereferenceable(8) %0) #7 comdat align 2 {
  %2 = alloca ptr, align 8
  store ptr %0, ptr %2, align 8, !tbaa !1438
  %3 = load ptr, ptr %2, align 8, !tbaa !1438
  %4 = getelementptr inbounds nuw %"struct.std::_Head_base.146", ptr %3, i32 0, i32 0
  ret ptr %4
}

; Function Attrs: mustprogress nounwind uwtable
define linkonce_odr hidden noundef nonnull align 8 dereferenceable(8) ptr @_ZNSt11_Tuple_implILm0EJPN2cv5gimpl11FluidMapperESt14default_deleteIS2_EEE7_M_headERKS6_(ptr noundef nonnull align 8 dereferenceable(8) %0) #7 comdat align 2 {
  %2 = alloca ptr, align 8
  store ptr %0, ptr %2, align 8, !tbaa !1434
  %3 = load ptr, ptr %2, align 8, !tbaa !1434
  %4 = call noundef nonnull align 8 dereferenceable(8) ptr @_ZNSt10_Head_baseILm0EPN2cv5gimpl11FluidMapperELb0EE7_M_headERKS4_(ptr noundef nonnull align 8 dereferenceable(8) %3) #3
  ret ptr %4
}

; Function Attrs: mustprogress nounwind uwtable
define linkonce_odr hidden noundef nonnull align 8 dereferenceable(8) ptr @_ZSt12__get_helperILm0EPN2cv5gimpl11FluidMapperEJSt14default_deleteIS2_EEERKT0_RKSt11_Tuple_implIXT_EJS6_DpT1_EE(ptr noundef nonnull align 8 dereferenceable(8) %0) #7 comdat {
  %2 = alloca ptr, align 8
  store ptr %0, ptr %2, align 8, !tbaa !1434
  %3 = load ptr, ptr %2, align 8, !tbaa !1434
  %4 = call noundef nonnull align 8 dereferenceable(8) ptr @_ZNSt11_Tuple_implILm0EJPN2cv5gimpl11FluidMapperESt14default_deleteIS2_EEE7_M_headERKS6_(ptr noundef nonnull align 8 dereferenceable(8) %3) #3
  ret ptr %4
}

; Function Attrs: mustprogress nounwind uwtable
define linkonce_odr hidden noundef nonnull align 8 dereferenceable(8) ptr @_ZSt3getILm0EJPN2cv5gimpl11FluidMapperESt14default_deleteIS2_EEERKNSt13tuple_elementIXT_ESt5tupleIJDpT0_EEE4typeERKSA_(ptr noundef nonnull align 8 dereferenceable(8) %0) #7 comdat {
  %2 = alloca ptr, align 8
  store ptr %0, ptr %2, align 8, !tbaa !1432
  %3 = load ptr, ptr %2, align 8, !tbaa !1432
  %4 = call noundef nonnull align 8 dereferenceable(8) ptr @_ZSt12__get_helperILm0EPN2cv5gimpl11FluidMapperEJSt14default_deleteIS2_EEERKT0_RKSt11_Tuple_implIXT_EJS6_DpT1_EE(ptr noundef nonnull align 8 dereferenceable(8) %3) #3
  ret ptr %4
}

; Function Attrs: mustprogress nounwind uwtable
define linkonce_odr hidden noundef ptr @_ZNKSt15__uniq_ptr_implIN2cv5gimpl11FluidMapperESt14default_deleteIS2_EE6_M_ptrEv(ptr noundef nonnull align 8 dereferenceable(8) %0) #7 comdat align 2 {
  %2 = alloca ptr, align 8
  store ptr %0, ptr %2, align 8, !tbaa !1430
  %3 = load ptr, ptr %2, align 8
  %4 = getelementptr inbounds nuw %"class.std::__uniq_ptr_impl.141", ptr %3, i32 0, i32 0
  %5 = call noundef nonnull align 8 dereferenceable(8) ptr @_ZSt3getILm0EJPN2cv5gimpl11FluidMapperESt14default_deleteIS2_EEERKNSt13tuple_elementIXT_ESt5tupleIJDpT0_EEE4typeERKSA_(ptr noundef nonnull align 8 dereferenceable(8) %4) #3
  %6 = load ptr, ptr %5, align 8, !tbaa !215
  ret ptr %6
}

; Function Attrs: mustprogress nounwind uwtable
define linkonce_odr hidden noundef ptr @_ZNKSt10unique_ptrIN2cv5gimpl11FluidMapperESt14default_deleteIS2_EE3getEv(ptr noundef nonnull align 8 dereferenceable(8) %0) #7 comdat align 2 {
  %2 = alloca ptr, align 8
  store ptr %0, ptr %2, align 8, !tbaa !210
  %3 = load ptr, ptr %2, align 8
  %4 = getelementptr inbounds nuw %"class.std::unique_ptr.139", ptr %3, i32 0, i32 0
  %5 = call noundef ptr @_ZNKSt15__uniq_ptr_implIN2cv5gimpl11FluidMapperESt14default_deleteIS2_EE6_M_ptrEv(ptr noundef nonnull align 8 dereferenceable(8) %4) #3
  ret ptr %5
}

; Function Attrs: mustprogress nounwind uwtable
define linkonce_odr hidden noundef ptr @_ZNKSt10unique_ptrIN2cv5gimpl11FluidMapperESt14default_deleteIS2_EEptEv(ptr noundef nonnull align 8 dereferenceable(8) %0) #7 comdat align 2 {
  %2 = alloca ptr, align 8
  store ptr %0, ptr %2, align 8, !tbaa !210
  %3 = load ptr, ptr %2, align 8
  %4 = call noundef ptr @_ZNKSt10unique_ptrIN2cv5gimpl11FluidMapperESt14default_deleteIS2_EE3getEv(ptr noundef nonnull align 8 dereferenceable(8) %3) #3
  ret ptr %4
}

; Function Attrs: inlinehint mustprogress nounwind uwtable
define linkonce_odr noundef nonnull align 4 dereferenceable(4) ptr @_ZSt3minIiERKT_S2_S2_(ptr noundef nonnull align 4 dereferenceable(4) %0, ptr noundef nonnull align 4 dereferenceable(4) %1) #8 comdat {
  %3 = alloca ptr, align 8
  %4 = alloca ptr, align 8
  %5 = alloca ptr, align 8
  store ptr %0, ptr %4, align 8, !tbaa !128
  store ptr %1, ptr %5, align 8, !tbaa !128
  %6 = load ptr, ptr %5, align 8, !tbaa !128
  %7 = load i32, ptr %6, align 4, !tbaa !146
  %8 = load ptr, ptr %4, align 8, !tbaa !128
  %9 = load i32, ptr %8, align 4, !tbaa !146
  %10 = icmp slt i32 %7, %9
  br i1 %10, label %11, label %13

11:                                               ; preds = %2
  %12 = load ptr, ptr %5, align 8, !tbaa !128
  store ptr %12, ptr %3, align 8
  br label %15

13:                                               ; preds = %2
  %14 = load ptr, ptr %4, align 8, !tbaa !128
  store ptr %14, ptr %3, align 8
  br label %15

15:                                               ; preds = %13, %11
  %16 = load ptr, ptr %3, align 8
  ret ptr %16
}

; Function Attrs: inlinehint mustprogress nounwind uwtable
define linkonce_odr hidden noundef i32 @_ZNK2cv4gapi5fluid6Buffer4Priv1yEv(ptr noundef nonnull align 8 dereferenceable(188) %0) #8 comdat align 2 {
  %2 = alloca ptr, align 8
  store ptr %0, ptr %2, align 8, !tbaa !185
  %3 = load ptr, ptr %2, align 8
  %4 = getelementptr inbounds nuw %"class.cv::gapi::fluid::Buffer::Priv", ptr %3, i32 0, i32 6
  %5 = load i32, ptr %4, align 4, !tbaa !187
  ret i32 %5
}

; Function Attrs: mustprogress nounwind uwtable
define linkonce_odr hidden noundef nonnull align 8 dereferenceable(8) ptr @_ZNKSt6vectorIPN2cv4gapi5fluid6BufferESaIS4_EEixEm(ptr noundef nonnull align 8 dereferenceable(24) %0, i64 noundef %1) #7 comdat align 2 {
  %3 = alloca ptr, align 8
  %4 = alloca i64, align 8
  store ptr %0, ptr %3, align 8, !tbaa !106
  store i64 %1, ptr %4, align 8, !tbaa !145
  %5 = load ptr, ptr %3, align 8
  %6 = getelementptr inbounds nuw %"struct.std::_Vector_base.27", ptr %5, i32 0, i32 0
  %7 = getelementptr inbounds nuw %"struct.std::_Vector_base<cv::gapi::fluid::Buffer *, std::allocator<cv::gapi::fluid::Buffer *>>::_Vector_impl_data", ptr %6, i32 0, i32 0
  %8 = load ptr, ptr %7, align 8, !tbaa !134
  %9 = load i64, ptr %4, align 8, !tbaa !145
  %10 = getelementptr inbounds nuw ptr, ptr %8, i64 %9
  ret ptr %10
}

; Function Attrs: mustprogress uwtable
define hidden i64 @_ZNK2cv5gimpl16FluidResizeAgent22linesReadAndnextWindowEm(ptr noundef nonnull align 8 dereferenceable(368) %0, i64 noundef %1) unnamed_addr #4 align 2 {
  %3 = alloca %"struct.std::pair.137", align 4
  %4 = alloca ptr, align 8
  %5 = alloca i64, align 8
  %6 = alloca i32, align 4
  %7 = alloca i32, align 4
  %8 = alloca i32, align 4
  store ptr %0, ptr %4, align 8, !tbaa !181
  store i64 %1, ptr %5, align 8, !tbaa !145
  %9 = load ptr, ptr %4, align 8
  call void @llvm.lifetime.start.p0(i64 4, ptr %6) #3
  %10 = getelementptr inbounds nuw %"struct.cv::gimpl::FluidAgent", ptr %9, i32 0, i32 8
  %11 = call noundef nonnull align 8 dereferenceable(8) ptr @_ZNKSt6vectorIPN2cv4gapi5fluid6BufferESaIS4_EEixEm(ptr noundef nonnull align 8 dereferenceable(24) %10, i64 noundef 0) #3
  %12 = load ptr, ptr %11, align 8, !tbaa !183
  %13 = call noundef nonnull align 8 dereferenceable(188) ptr @_ZN2cv4gapi5fluid6Buffer4privEv(ptr noundef nonnull align 8 dereferenceable(16) %12)
  %14 = call noundef i32 @_ZNK2cv4gapi5fluid6Buffer4Priv1yEv(ptr noundef nonnull align 8 dereferenceable(188) %13)
  store i32 %14, ptr %6, align 4, !tbaa !146
  call void @llvm.lifetime.start.p0(i64 4, ptr %7) #3
  call void @llvm.lifetime.start.p0(i64 4, ptr %8) #3
  %15 = getelementptr inbounds nuw %"struct.cv::gimpl::FluidAgent", ptr %9, i32 0, i32 9
  %16 = load i32, ptr %15, align 8, !tbaa !27
  %17 = getelementptr inbounds nuw %"struct.cv::gimpl::FluidAgent", ptr %9, i32 0, i32 10
  %18 = load i32, ptr %17, align 4, !tbaa !70
  %19 = sub nsw i32 %16, %18
  %20 = getelementptr inbounds nuw %"struct.cv::gimpl::FluidAgent", ptr %9, i32 0, i32 1
  %21 = getelementptr inbounds nuw %"class.cv::GFluidKernel", ptr %20, i32 0, i32 1
  %22 = load i32, ptr %21, align 4, !tbaa !180
  %23 = sub nsw i32 %19, %22
  store i32 %23, ptr %8, align 4, !tbaa !146
  %24 = getelementptr inbounds nuw %"struct.cv::gimpl::FluidAgent", ptr %9, i32 0, i32 1
  %25 = getelementptr inbounds nuw %"class.cv::GFluidKernel", ptr %24, i32 0, i32 1
  %26 = call noundef nonnull align 4 dereferenceable(4) ptr @_ZSt3minIiERKT_S2_S2_(ptr noundef nonnull align 4 dereferenceable(4) %8, ptr noundef nonnull align 4 dereferenceable(4) %25)
  %27 = load i32, ptr %26, align 4, !tbaa !146
  call void @llvm.lifetime.end.p0(i64 4, ptr %8) #3
  store i32 %27, ptr %7, align 4, !tbaa !146
  %28 = getelementptr inbounds nuw %"struct.cv::gimpl::FluidResizeAgent", ptr %9, i32 0, i32 1
  %29 = call noundef ptr @_ZNKSt10unique_ptrIN2cv5gimpl11FluidMapperESt14default_deleteIS2_EEptEv(ptr noundef nonnull align 8 dereferenceable(8) %28) #3
  %30 = load i32, ptr %6, align 4, !tbaa !146
  %31 = load i32, ptr %7, align 4, !tbaa !146
  %32 = load ptr, ptr %29, align 8, !tbaa !25
  %33 = getelementptr inbounds ptr, ptr %32, i64 3
  %34 = load ptr, ptr %33, align 8
  %35 = call i64 %34(ptr noundef nonnull align 8 dereferenceable(20) %29, i32 noundef %30, i32 noundef %31)
  store i64 %35, ptr %3, align 4
  call void @llvm.lifetime.end.p0(i64 4, ptr %7) #3
  call void @llvm.lifetime.end.p0(i64 4, ptr %6) #3
  %36 = load i64, ptr %3, align 4
  ret i64 %36
}