; Function Attrs: mustprogress uwtable
define hidden i64 @_ZNK2cv5gimpl16FluidResizeAgent22linesReadAndnextWindowEm(ptr noundef nonnull readonly align 8 captures(none) dereferenceable(368) %0, i64 %1) unnamed_addr #3 align 2 {
  %3 = getelementptr inbounds nuw i8, ptr %0, i64 328
  %4 = load ptr, ptr %3, align 8, !tbaa !127
  %5 = load ptr, ptr %4, align 8, !tbaa !190
  %6 = tail call noundef nonnull align 8 dereferenceable(188) ptr @_ZN2cv4gapi5fluid6Buffer4privEv(ptr noundef nonnull align 8 dereferenceable(16) %5)
  %7 = getelementptr inbounds nuw i8, ptr %6, i64 132
  %8 = load i32, ptr %7, align 4, !tbaa !192
  %9 = getelementptr inbounds nuw i8, ptr %0, i64 352
  %10 = load i32, ptr %9, align 8, !tbaa !186
  %11 = getelementptr inbounds nuw i8, ptr %0, i64 356
  %12 = load i32, ptr %11, align 4, !tbaa !154
  %13 = getelementptr inbounds nuw i8, ptr %0, i64 12
  %14 = load i32, ptr %13, align 4, !tbaa !189
  %15 = add i32 %12, %14
  %16 = sub i32 %10, %15
  %.sroa.speculated = tail call i32 @llvm.smin.i32(i32 %14, i32 %16)
  %17 = getelementptr inbounds nuw i8, ptr %0, i64 360
  %18 = load ptr, ptr %17, align 8, !tbaa !215
  %19 = load ptr, ptr %18, align 8, !tbaa !13
  %20 = getelementptr inbounds nuw i8, ptr %19, i64 24
  %21 = load ptr, ptr %20, align 8
  %22 = tail call i64 %21(ptr noundef nonnull align 8 dereferenceable(20) %18, i32 noundef %8, i32 noundef %.sroa.speculated)
  ret i64 %22
}